; Function Attrs: nounwind uwtable
define ptr @l_Lean_mkIdentFromRef___at_Lean_Elab_Command_elabElabRulesAux___spec__6(ptr noundef %0, i8 noundef zeroext %1, ptr noundef %2, ptr noundef %3, ptr noundef %4) local_unnamed_addr #0 {
  %6 = tail call ptr @l_Lean_Elab_Command_getRef(ptr noundef %2, ptr noundef %3, ptr noundef %4) #6
  %.val = load i32, ptr %6, align 4, !tbaa !8
  %7 = icmp eq i32 %.val, 1
  %8 = getelementptr inbounds nuw i8, ptr %6, i64 8
  %9 = load ptr, ptr %8, align 8, !tbaa !4
  br i1 %7, label %10, label %21

10:                                               ; preds = %5
  %11 = tail call ptr @l_Lean_mkIdentFrom(ptr noundef %9, ptr noundef %0, i8 noundef zeroext %1) #6
  %12 = ptrtoint ptr %9 to i64
  %13 = and i64 %12, 1
  %.not40 = icmp eq i64 %13, 0
  br i1 %.not40, label %14, label %lean_dec.exit29

14:                                               ; preds = %10
  %15 = load i32, ptr %9, align 4, !tbaa !8
  %16 = icmp sgt i32 %15, 1
  br i1 %16, label %17, label %19, !prof !15

17:                                               ; preds = %14
  %18 = add nsw i32 %15, -1
  store i32 %18, ptr %9, align 4, !tbaa !8
  br label %lean_dec.exit29

19:                                               ; preds = %14
  %.not.i = icmp eq i32 %15, 0
  br i1 %.not.i, label %lean_dec.exit29, label %20

20:                                               ; preds = %19
  tail call void @lean_dec_ref_cold(ptr noundef nonnull %9) #6
  br label %lean_dec.exit29

lean_dec.exit29:                                  ; preds = %20, %19, %17, %10
  store ptr %11, ptr %8, align 8, !tbaa !4
  br label %63

21:                                               ; preds = %5
  %22 = getelementptr inbounds nuw i8, ptr %6, i64 16
  %23 = load ptr, ptr %22, align 8, !tbaa !4
  %24 = ptrtoint ptr %23 to i64
  %25 = and i64 %24, 1
  %.not = icmp eq i64 %25, 0
  br i1 %.not, label %26, label %lean_inc.exit27

26:                                               ; preds = %21
  %.val.i = load i32, ptr %23, align 4, !tbaa !8
  %27 = icmp sgt i32 %.val.i, 0
  br i1 %27, label %28, label %30, !prof !15

28:                                               ; preds = %26
  %29 = add nuw i32 %.val.i, 1
  store i32 %29, ptr %23, align 4, !tbaa !8
  br label %lean_inc.exit27

30:                                               ; preds = %26
  %.not.i34 = icmp eq i32 %.val.i, 0
  br i1 %.not.i34, label %lean_inc.exit27, label %31

31:                                               ; preds = %30
  tail call void @lean_inc_ref_cold(ptr noundef nonnull %23) #6
  br label %lean_inc.exit27

lean_inc.exit27:                                  ; preds = %31, %30, %28, %21
  %32 = ptrtoint ptr %9 to i64
  %33 = and i64 %32, 1
  %.not38 = icmp eq i64 %33, 0
  br i1 %.not38, label %34, label %lean_inc.exit

34:                                               ; preds = %lean_inc.exit27
  %.val.i35 = load i32, ptr %9, align 4, !tbaa !8
  %35 = icmp sgt i32 %.val.i35, 0
  br i1 %35, label %36, label %38, !prof !15

36:                                               ; preds = %34
  %37 = add nuw i32 %.val.i35, 1
  store i32 %37, ptr %9, align 4, !tbaa !8
  br label %lean_inc.exit

38:                                               ; preds = %34
  %.not.i36 = icmp eq i32 %.val.i35, 0
  br i1 %.not.i36, label %lean_inc.exit, label %39

39:                                               ; preds = %38
  tail call void @lean_inc_ref_cold(ptr noundef nonnull %9) #6
  br label %lean_inc.exit

lean_inc.exit:                                    ; preds = %39, %38, %36, %lean_inc.exit27
  %40 = ptrtoint ptr %6 to i64
  %41 = and i64 %40, 1
  %.not39 = icmp eq i64 %41, 0
  br i1 %.not39, label %42, label %lean_dec.exit28

42:                                               ; preds = %lean_inc.exit
  %43 = load i32, ptr %6, align 4, !tbaa !8
  %44 = icmp sgt i32 %43, 1
  br i1 %44, label %45, label %47, !prof !15

45:                                               ; preds = %42
  %46 = add nsw i32 %43, -1
  store i32 %46, ptr %6, align 4, !tbaa !8
  br label %lean_dec.exit28

47:                                               ; preds = %42
  %.not.i30 = icmp eq i32 %43, 0
  br i1 %.not.i30, label %lean_dec.exit28, label %48

48:                                               ; preds = %47
  tail call void @lean_dec_ref_cold(ptr noundef nonnull %6) #6
  br label %lean_dec.exit28

lean_dec.exit28:                                  ; preds = %48, %47, %45, %lean_inc.exit
  %49 = tail call ptr @l_Lean_mkIdentFrom(ptr noundef %9, ptr noundef %0, i8 noundef zeroext %1) #6
  br i1 %.not38, label %50, label %lean_dec.exit

50:                                               ; preds = %lean_dec.exit28
  %51 = load i32, ptr %9, align 4, !tbaa !8
  %52 = icmp sgt i32 %51, 1
  br i1 %52, label %53, label %55, !prof !15

53:                                               ; preds = %50
  %54 = add nsw i32 %51, -1
  store i32 %54, ptr %9, align 4, !tbaa !8
  br label %lean_dec.exit

55:                                               ; preds = %50
  %.not.i32 = icmp eq i32 %51, 0
  br i1 %.not.i32, label %lean_dec.exit, label %56

56:                                               ; preds = %55
  tail call void @lean_dec_ref_cold(ptr noundef nonnull %9) #6
  br label %lean_dec.exit

lean_dec.exit:                                    ; preds = %56, %55, %53, %lean_dec.exit28
  tail call void @lean_inc_heartbeat() #6
  %57 = tail call noalias ptr @mi_malloc_small(i64 noundef 24) #6
  %58 = icmp eq ptr %57, null
  br i1 %58, label %59, label %lean_alloc_ctor.exit

59:                                               ; preds = %lean_dec.exit
  tail call void @lean_internal_panic_out_of_memory() #7
  unreachable

lean_alloc_ctor.exit:                             ; preds = %lean_dec.exit
  %60 = getelementptr inbounds nuw i8, ptr %57, i64 4
  store i32 1, ptr %57, align 4, !tbaa !8
  store i32 131096, ptr %60, align 4
  %61 = getelementptr inbounds nuw i8, ptr %57, i64 8
  store ptr %49, ptr %61, align 8, !tbaa !4
  %62 = getelementptr inbounds nuw i8, ptr %57, i64 16
  store ptr %23, ptr %62, align 8, !tbaa !4
  br label %63

63:                                               ; preds = %lean_alloc_ctor.exit, %lean_dec.exit29
  %.0 = phi ptr [ %6, %lean_dec.exit29 ], [ %57, %lean_alloc_ctor.exit ]
  ret ptr %.0
}